target datalayout = "e-m:e-p270:32:32-p271:32:32-p272:64:64-i64:64-i128:128-f80:128-n8:16:32:64-S128"
target triple = "x86_64-pc-linux-gnu"

%struct.H5F_t = type { ptr, ptr, ptr, ptr, i32, ptr, i8, i8, ptr, i32 }

@.str.2 = private unnamed_addr constant [100 x i8] c"generated/home/dtcxzyw/WorkSpace/Projects/compilers/llvm-opt-benchmark/bench/hdf5/hdf5/src/H5Fint.c\00", align 1
@H5E_ID_g = external global i64, align 8
@__func__.H5F_get_id = private unnamed_addr constant [11 x i8] c"H5F_get_id\00", align 1
@H5E_CANTREGISTER_g = external global i64, align 8
@.str.131 = private unnamed_addr constant [25 x i8] c"unable to register group\00", align 1
@H5E_CANTINC_g = external global i64, align 8
@.str.132 = private unnamed_addr constant [28 x i8] c"incrementing file ID failed\00", align 1

; Function Attrs: nounwind uwtable
define i64 @H5F_get_id(ptr noundef %0) #0 {
  %2 = alloca ptr, align 8
  %3 = alloca i64, align 8
  %4 = alloca i8, align 1
  store ptr %0, ptr %2, align 8
  store i64 -1, ptr %3, align 8
  store i8 0, ptr %4, align 1
  %5 = load ptr, ptr %2, align 8
  %6 = call i32 @H5I_find_id(ptr noundef %5, i32 noundef 1, ptr noundef %3)
  %7 = icmp slt i32 %6, 0
  br i1 %7, label %11, label %8

8:                                                ; preds = %1
  %9 = load i64, ptr %3, align 8
  %10 = icmp eq i64 -1, %9
  br i1 %10, label %11, label %33

11:                                               ; preds = %8, %1
  %12 = load ptr, ptr %2, align 8
  %13 = call i64 @H5VL_wrap_register(i32 noundef 1, ptr noundef %12, i1 noundef zeroext false)
  store i64 %13, ptr %3, align 8
  %14 = icmp slt i64 %13, 0
  br i1 %14, label %15, label %30

15:                                               ; preds = %11
  br label %16

16:                                               ; preds = %15
  br label %17

17:                                               ; preds = %16
  br label %18

18:                                               ; preds = %17
  %19 = load i64, ptr @H5E_ID_g, align 8
  %20 = load i64, ptr @H5E_CANTREGISTER_g, align 8
  %21 = call i32 (ptr, ptr, i32, i64, i64, ptr, ...) @H5E_printf_stack(ptr noundef @.str.2, ptr noundef @__func__.H5F_get_id, i32 noundef 2710, i64 noundef %19, i64 noundef %20, ptr noundef @.str.131)
  br label %22

22:                                               ; preds = %18
  store i8 1, ptr %4, align 1
  %23 = load i8, ptr %4, align 1
  %24 = trunc i8 %23 to i1
  %25 = zext i1 %24 to i8
  store i8 %25, ptr %4, align 1
  br label %26

26:                                               ; preds = %22
  br label %27

27:                                               ; preds = %26
  store i64 -1, ptr %3, align 8
  br label %54

28:                                               ; No predecessors!
  br label %29

29:                                               ; preds = %28
  br label %30

30:                                               ; preds = %29, %11
  %31 = load ptr, ptr %2, align 8
  %32 = getelementptr inbounds %struct.H5F_t, ptr %31, i32 0, i32 6
  store i8 1, ptr %32, align 8
  br label %53

33:                                               ; preds = %8
  %34 = load i64, ptr %3, align 8
  %35 = call i32 @H5I_inc_ref(i64 noundef %34, i1 noundef zeroext false)
  %36 = icmp slt i32 %35, 0
  br i1 %36, label %37, label %52

37:                                               ; preds = %33
  br label %38

38:                                               ; preds = %37
  br label %39

39:                                               ; preds = %38
  br label %40

40:                                               ; preds = %39
  %41 = load i64, ptr @H5E_ID_g, align 8
  %42 = load i64, ptr @H5E_CANTINC_g, align 8
  %43 = call i32 (ptr, ptr, i32, i64, i64, ptr, ...) @H5E_printf_stack(ptr noundef @.str.2, ptr noundef @__func__.H5F_get_id, i32 noundef 2716, i64 noundef %41, i64 noundef %42, ptr noundef @.str.132)
  br label %44

44:                                               ; preds = %40
  store i8 1, ptr %4, align 1
  %45 = load i8, ptr %4, align 1
  %46 = trunc i8 %45 to i1
  %47 = zext i1 %46 to i8
  store i8 %47, ptr %4, align 1
  br label %48

48:                                               ; preds = %44
  br label %49

49:                                               ; preds = %48
  store i64 -1, ptr %3, align 8
  br label %54

50:                                               ; No predecessors!
  br label %51

51:                                               ; preds = %50
  br label %52

52:                                               ; preds = %51, %33
  br label %53

53:                                               ; preds = %52, %30
  br label %54

54:                                               ; preds = %53, %49, %27
  %55 = load i64, ptr %3, align 8
  ret i64 %55
}