; Function Attrs: nounwind uwtable
define i64 @H5F_get_id(ptr noundef %0) local_unnamed_addr #0 {
  %2 = alloca i64, align 8
  store i64 -1, ptr %2, align 8
  %3 = call i32 @H5I_find_id(ptr noundef %0, i32 noundef 1, ptr noundef nonnull %2) #22
  %4 = icmp slt i32 %3, 0
  %5 = load i64, ptr %2, align 8
  %6 = icmp eq i64 %5, -1
  %or.cond = select i1 %4, i1 true, i1 %6
  br i1 %or.cond, label %7, label %16

7:                                                ; preds = %1
  %8 = call i64 @H5VL_wrap_register(i32 noundef 1, ptr noundef %0, i1 noundef zeroext false) #22
  store i64 %8, ptr %2, align 8
  %9 = icmp slt i64 %8, 0
  br i1 %9, label %10, label %14

10:                                               ; preds = %7
  %11 = load i64, ptr @H5E_ID_g, align 8
  %12 = load i64, ptr @H5E_CANTREGISTER_g, align 8
  %13 = call i32 (ptr, ptr, i32, i64, i64, ptr, ...) @H5E_printf_stack(ptr noundef nonnull @.str.2, ptr noundef nonnull @__func__.H5F_get_id, i32 noundef 2710, i64 noundef %11, i64 noundef %12, ptr noundef nonnull @.str.131) #22
  br label %23

14:                                               ; preds = %7
  %15 = getelementptr inbounds i8, ptr %0, i64 48
  store i8 1, ptr %15, align 8
  br label %23

16:                                               ; preds = %1
  %17 = call i32 @H5I_inc_ref(i64 noundef %5, i1 noundef zeroext false) #22
  %18 = icmp slt i32 %17, 0
  br i1 %18, label %19, label %._crit_edge

._crit_edge:                                      ; preds = %16
  %.pre = load i64, ptr %2, align 8
  br label %23

19:                                               ; preds = %16
  %20 = load i64, ptr @H5E_ID_g, align 8
  %21 = load i64, ptr @H5E_CANTINC_g, align 8
  %22 = call i32 (ptr, ptr, i32, i64, i64, ptr, ...) @H5E_printf_stack(ptr noundef nonnull @.str.2, ptr noundef nonnull @__func__.H5F_get_id, i32 noundef 2716, i64 noundef %20, i64 noundef %21, ptr noundef nonnull @.str.132) #22
  br label %23

23:                                               ; preds = %._crit_edge, %14, %19, %10
  %24 = phi i64 [ %.pre, %._crit_edge ], [ %8, %14 ], [ -1, %19 ], [ -1, %10 ]
  ret i64 %24
}